; Function Attrs: mustprogress uwtable
define hidden i32 @ncnn_net_get_input_count(ptr nocapture noundef readonly %0) local_unnamed_addr #1 {
  %2 = load ptr, ptr %0, align 8
  %3 = tail call noundef nonnull align 8 dereferenceable(24) ptr @_ZNK4ncnn3Net13input_indexesEv(ptr noundef nonnull align 8 dereferenceable(80) %2)
  %4 = getelementptr inbounds nuw i8, ptr %3, i64 8
  %5 = load ptr, ptr %4, align 8
  %6 = load ptr, ptr %3, align 8
  %7 = ptrtoint ptr %5 to i64
  %8 = ptrtoint ptr %6 to i64
  %9 = sub i64 %7, %8
  %10 = lshr exact i64 %9, 2
  %11 = trunc i64 %10 to i32
  ret i32 %11
}